; Function Attrs: nounwind uwtable
define internal range(i32 0, 2) i32 @php_stream_ftp_rmdir(ptr noundef %0, ptr noundef %1, i32 noundef %2, ptr noundef %3) #0 {
  %5 = alloca ptr, align 8
  %6 = alloca [512 x i8], align 16
  call void @llvm.lifetime.start.p0(i64 8, ptr nonnull %5) #15
  store ptr null, ptr %5, align 8, !tbaa !4
  call void @llvm.lifetime.start.p0(i64 512, ptr nonnull %6) #15
  %7 = call fastcc ptr @php_ftp_fopen_connect(ptr noundef %0, ptr noundef %1, i32 noundef 0, ptr noundef %3, ptr noundef null, ptr noundef nonnull %5, ptr noundef null, ptr noundef null)
  %.not = icmp eq ptr %7, null
  br i1 %.not, label %8, label %11

8:                                                ; preds = %4
  %9 = and i32 %2, 8
  %.not20 = icmp eq i32 %9, 0
  br i1 %.not20, label %56, label %10

10:                                               ; preds = %8
  call void (ptr, i32, ptr, ...) @php_error_docref(ptr noundef null, i32 noundef 2, ptr noundef nonnull @.str.46, ptr noundef %1) #15
  br label %56

11:                                               ; preds = %4
  %12 = load ptr, ptr %5, align 8, !tbaa !4
  %13 = getelementptr inbounds nuw i8, ptr %12, i64 40
  %14 = load ptr, ptr %13, align 8, !tbaa !22
  %15 = icmp eq ptr %14, null
  br i1 %15, label %16, label %19

16:                                               ; preds = %11
  %17 = and i32 %2, 8
  %.not22 = icmp eq i32 %17, 0
  br i1 %.not22, label %56, label %18

18:                                               ; preds = %16
  call void (ptr, i32, ptr, ...) @php_error_docref(ptr noundef null, i32 noundef 2, ptr noundef nonnull @.str.47, ptr noundef %1) #15
  br label %56

19:                                               ; preds = %11
  %20 = getelementptr inbounds nuw i8, ptr %14, i64 24
  %21 = call i64 (ptr, ptr, ...) @_php_stream_printf(ptr noundef nonnull %7, ptr noundef nonnull @.str.54, ptr noundef nonnull %20) #15
  store i8 0, ptr %6, align 16, !tbaa !17
  %22 = getelementptr inbounds nuw i8, ptr %6, i64 3
  %23 = call ptr @_php_stream_get_line(ptr noundef nonnull %7, ptr noundef nonnull %6, i64 noundef 511, ptr noundef null) #15
  %.not14.i = icmp eq ptr %23, null
  br i1 %.not14.i, label %get_ftp_result.exit, label %.lr.ph.i

.lr.ph.i:                                         ; preds = %19
  %24 = tail call ptr @__ctype_b_loc() #17
  %25 = getelementptr inbounds nuw i8, ptr %6, i64 1
  %26 = getelementptr inbounds nuw i8, ptr %6, i64 2
  br label %27

27:                                               ; preds = %.backedge.i, %.lr.ph.i
  %28 = load ptr, ptr %24, align 8, !tbaa !18
  %29 = load i8, ptr %6, align 16, !tbaa !17
  %30 = sext i8 %29 to i64
  %31 = getelementptr inbounds i16, ptr %28, i64 %30
  %32 = load i16, ptr %31, align 2, !tbaa !20
  %33 = and i16 %32, 2048
  %.not8.i = icmp eq i16 %33, 0
  br i1 %.not8.i, label %.backedge.i, label %34

34:                                               ; preds = %27
  %35 = load i8, ptr %25, align 1, !tbaa !17
  %36 = sext i8 %35 to i64
  %37 = getelementptr inbounds i16, ptr %28, i64 %36
  %38 = load i16, ptr %37, align 2, !tbaa !20
  %39 = and i16 %38, 2048
  %.not9.i = icmp eq i16 %39, 0
  br i1 %.not9.i, label %.backedge.i, label %40

40:                                               ; preds = %34
  %41 = load i8, ptr %26, align 2, !tbaa !17
  %42 = sext i8 %41 to i64
  %43 = getelementptr inbounds i16, ptr %28, i64 %42
  %44 = load i16, ptr %43, align 2, !tbaa !20
  %45 = and i16 %44, 2048
  %.not10.i = icmp ne i16 %45, 0
  %46 = load i8, ptr %22, align 1
  %.not13.i = icmp eq i8 %46, 32
  %or.cond24 = select i1 %.not10.i, i1 %.not13.i, i1 false
  br i1 %or.cond24, label %get_ftp_result.exit, label %.backedge.i

.backedge.i:                                      ; preds = %40, %34, %27
  %47 = call ptr @_php_stream_get_line(ptr noundef nonnull %7, ptr noundef nonnull %6, i64 noundef 511, ptr noundef null) #15
  %.not.i = icmp eq ptr %47, null
  br i1 %.not.i, label %get_ftp_result.exit, label %27

get_ftp_result.exit:                              ; preds = %40, %.backedge.i, %19
  %48 = call i64 @strtol(ptr noundef nonnull captures(none) %6, ptr noundef null, i32 noundef 10) #15
  %49 = trunc i64 %48 to i32
  %50 = add i32 %49, -300
  %or.cond = icmp ult i32 %50, -100
  br i1 %or.cond, label %51, label %54

51:                                               ; preds = %get_ftp_result.exit
  %52 = and i32 %2, 8
  %.not21 = icmp eq i32 %52, 0
  br i1 %.not21, label %56, label %53

53:                                               ; preds = %51
  call void (ptr, i32, ptr, ...) @php_error_docref(ptr noundef null, i32 noundef 2, ptr noundef nonnull @.str.53, ptr noundef nonnull %6) #15
  br label %56

54:                                               ; preds = %get_ftp_result.exit
  %55 = load ptr, ptr %5, align 8, !tbaa !4
  call void @php_url_free(ptr noundef %55) #15
  br label %.sink.split

56:                                               ; preds = %51, %53, %16, %18, %8, %10
  %57 = load ptr, ptr %5, align 8, !tbaa !4
  %.not23 = icmp eq ptr %57, null
  br i1 %.not23, label %59, label %58

58:                                               ; preds = %56
  call void @php_url_free(ptr noundef nonnull %57) #15
  br label %59

59:                                               ; preds = %58, %56
  br i1 %.not, label %61, label %.sink.split

.sink.split:                                      ; preds = %59, %54
  %.0.ph = phi i32 [ 1, %54 ], [ 0, %59 ]
  %60 = call i32 @_php_stream_free(ptr noundef nonnull %7, i32 noundef 3) #15
  br label %61

61:                                               ; preds = %.sink.split, %59
  %.0 = phi i32 [ 0, %59 ], [ %.0.ph, %.sink.split ]
  call void @llvm.lifetime.end.p0(i64 512, ptr nonnull %6) #15
  call void @llvm.lifetime.end.p0(i64 8, ptr nonnull %5) #15
  ret i32 %.0
}